target datalayout = "e-m:e-p270:32:32-p271:32:32-p272:64:64-i64:64-i128:128-f80:128-n8:16:32:64-S128"
target triple = "x86_64-pc-linux-gnu"

%struct.ARKodeMemRec = type { ptr, double, ptr, i32, i32, double, double, ptr, i32, double, ptr, i32, i32, ptr, ptr, i32, ptr, ptr, i32, ptr, ptr, ptr, ptr, ptr, ptr, ptr, ptr, ptr, ptr, ptr, ptr, ptr, ptr, ptr, i32, ptr, ptr, i32, ptr, i32, ptr, ptr, ptr, ptr, ptr, ptr, ptr, ptr, ptr, ptr, ptr, ptr, ptr, ptr, ptr, ptr, ptr, ptr, ptr, ptr, ptr, ptr, ptr, ptr, ptr, ptr, i32, ptr, ptr, ptr, ptr, ptr, ptr, ptr, i32, ptr, ptr, ptr, i32, ptr, ptr, ptr, ptr, ptr, ptr, ptr, i32, i32, i32, i32, double, double, double, double, double, double, double, double, double, double, i32, ptr, i64, i32, i32, i32, i32, i64, i64, i32, i64, i64, i64, i64, i64, i64, i64, double, double, double, double, double, i32, double, double, i32, i32, i32, i32, i32, i32, i32, i32, ptr, i32, ptr, ptr, ptr, ptr, i32, i32, i32 }

@.str = private unnamed_addr constant [115 x i8] c"generated/home/dtcxzyw/WorkSpace/Projects/compilers/llvm-opt-benchmark/bench/sundials/sundials/src/arkode/arkode.c\00", align 1
@__func__.arkResizeVec = private unnamed_addr constant [13 x i8] c"arkResizeVec\00", align 1
@.str.138 = private unnamed_addr constant [23 x i8] c"Unable to clone vector\00", align 1
@.str.139 = private unnamed_addr constant [42 x i8] c"Error in user-supplied resize() function.\00", align 1

; Function Attrs: nounwind uwtable
define i32 @arkResizeVec(ptr noundef %0, ptr noundef %1, ptr noundef %2, i64 noundef %3, i64 noundef %4, ptr noundef %5, ptr noundef %6) #0 {
  %8 = alloca i32, align 4
  %9 = alloca ptr, align 8
  %10 = alloca ptr, align 8
  %11 = alloca ptr, align 8
  %12 = alloca i64, align 8
  %13 = alloca i64, align 8
  %14 = alloca ptr, align 8
  %15 = alloca ptr, align 8
  store ptr %0, ptr %9, align 8, !tbaa !11
  store ptr %1, ptr %10, align 8, !tbaa !3
  store ptr %2, ptr %11, align 8, !tbaa !3
  store i64 %3, ptr %12, align 8, !tbaa !30
  store i64 %4, ptr %13, align 8, !tbaa !30
  store ptr %5, ptr %14, align 8, !tbaa !7
  store ptr %6, ptr %15, align 8, !tbaa !89
  %16 = load ptr, ptr %15, align 8, !tbaa !89
  %17 = load ptr, ptr %16, align 8, !tbaa !7
  %18 = icmp ne ptr %17, null
  br i1 %18, label %19, label %57

19:                                               ; preds = %7
  %20 = load ptr, ptr %10, align 8, !tbaa !3
  %21 = icmp eq ptr %20, null
  br i1 %21, label %22, label %35

22:                                               ; preds = %19
  %23 = load ptr, ptr %15, align 8, !tbaa !89
  %24 = load ptr, ptr %23, align 8, !tbaa !7
  call void @N_VDestroy(ptr noundef %24)
  %25 = load ptr, ptr %15, align 8, !tbaa !89
  store ptr null, ptr %25, align 8, !tbaa !7
  %26 = load ptr, ptr %14, align 8, !tbaa !7
  %27 = call ptr @N_VClone(ptr noundef %26)
  %28 = load ptr, ptr %15, align 8, !tbaa !89
  store ptr %27, ptr %28, align 8, !tbaa !7
  %29 = load ptr, ptr %15, align 8, !tbaa !89
  %30 = load ptr, ptr %29, align 8, !tbaa !7
  %31 = icmp eq ptr %30, null
  br i1 %31, label %32, label %34

32:                                               ; preds = %22
  %33 = load ptr, ptr %9, align 8, !tbaa !11
  call void (ptr, i32, i32, ptr, ptr, ptr, ...) @arkProcessError(ptr noundef %33, i32 noundef -20, i32 noundef 3416, ptr noundef @__func__.arkResizeVec, ptr noundef @.str, ptr noundef @.str.138)
  store i32 0, ptr %8, align 4
  br label %58

34:                                               ; preds = %22
  br label %46

35:                                               ; preds = %19
  %36 = load ptr, ptr %10, align 8, !tbaa !3
  %37 = load ptr, ptr %15, align 8, !tbaa !89
  %38 = load ptr, ptr %37, align 8, !tbaa !7
  %39 = load ptr, ptr %14, align 8, !tbaa !7
  %40 = load ptr, ptr %11, align 8, !tbaa !3
  %41 = call i32 %36(ptr noundef %38, ptr noundef %39, ptr noundef %40)
  %42 = icmp ne i32 %41, 0
  br i1 %42, label %43, label %45

43:                                               ; preds = %35
  %44 = load ptr, ptr %9, align 8, !tbaa !11
  call void (ptr, i32, i32, ptr, ptr, ptr, ...) @arkProcessError(ptr noundef %44, i32 noundef -20, i32 noundef 3425, ptr noundef @__func__.arkResizeVec, ptr noundef @.str, ptr noundef @.str.139)
  store i32 0, ptr %8, align 4
  br label %58

45:                                               ; preds = %35
  br label %46

46:                                               ; preds = %45, %34
  %47 = load i64, ptr %12, align 8, !tbaa !30
  %48 = load ptr, ptr %9, align 8, !tbaa !11
  %49 = getelementptr inbounds nuw %struct.ARKodeMemRec, ptr %48, i32 0, i32 115
  %50 = load i64, ptr %49, align 8, !tbaa !91
  %51 = add nsw i64 %50, %47
  store i64 %51, ptr %49, align 8, !tbaa !91
  %52 = load i64, ptr %13, align 8, !tbaa !30
  %53 = load ptr, ptr %9, align 8, !tbaa !11
  %54 = getelementptr inbounds nuw %struct.ARKodeMemRec, ptr %53, i32 0, i32 116
  %55 = load i64, ptr %54, align 8, !tbaa !92
  %56 = add nsw i64 %55, %52
  store i64 %56, ptr %54, align 8, !tbaa !92
  br label %57

57:                                               ; preds = %46, %7
  store i32 1, ptr %8, align 4
  br label %58

58:                                               ; preds = %57, %43, %32
  %59 = load i32, ptr %8, align 4
  ret i32 %59
}