; Function Attrs: nounwind uwtable
define range(i32 0, 2) i32 @arkResizeVec(ptr noundef captures(address_is_null) %0, ptr noundef readonly captures(address_is_null) %1, ptr noundef %2, i64 noundef %3, i64 noundef %4, ptr noundef %5, ptr noundef captures(none) %6) local_unnamed_addr #0 {
  %8 = load ptr, ptr %6, align 8, !tbaa !52
  %.not = icmp eq ptr %8, null
  br i1 %.not, label %25, label %9

9:                                                ; preds = %7
  %10 = icmp eq ptr %1, null
  br i1 %10, label %11, label %15

11:                                               ; preds = %9
  tail call void @N_VDestroy(ptr noundef nonnull %8) #16
  store ptr null, ptr %6, align 8, !tbaa !52
  %12 = tail call ptr @N_VClone(ptr noundef %5) #16
  store ptr %12, ptr %6, align 8, !tbaa !52
  %13 = icmp eq ptr %12, null
  br i1 %13, label %14, label %18

14:                                               ; preds = %11
  tail call void (ptr, i32, i32, ptr, ptr, ptr, ...) @arkProcessError(ptr noundef %0, i32 noundef -20, i32 noundef 3416, ptr noundef nonnull @__func__.arkResizeVec, ptr noundef nonnull @.str, ptr noundef nonnull @.str.138)
  br label %25

15:                                               ; preds = %9
  %16 = tail call i32 %1(ptr noundef nonnull %8, ptr noundef %5, ptr noundef %2) #16
  %.not19 = icmp eq i32 %16, 0
  br i1 %.not19, label %18, label %17

17:                                               ; preds = %15
  tail call void (ptr, i32, i32, ptr, ptr, ptr, ...) @arkProcessError(ptr noundef %0, i32 noundef -20, i32 noundef 3425, ptr noundef nonnull @__func__.arkResizeVec, ptr noundef nonnull @.str, ptr noundef nonnull @.str.139)
  br label %25

18:                                               ; preds = %15, %11
  %19 = getelementptr inbounds nuw i8, ptr %0, i64 872
  %20 = load i64, ptr %19, align 8, !tbaa !53
  %21 = add nsw i64 %20, %3
  store i64 %21, ptr %19, align 8, !tbaa !53
  %22 = getelementptr inbounds nuw i8, ptr %0, i64 880
  %23 = load i64, ptr %22, align 8, !tbaa !54
  %24 = add nsw i64 %23, %4
  store i64 %24, ptr %22, align 8, !tbaa !54
  br label %25

25:                                               ; preds = %7, %18, %17, %14
  %.0 = phi i32 [ 0, %14 ], [ 0, %17 ], [ 1, %18 ], [ 1, %7 ]
  ret i32 %.0
}